target datalayout = "e-m:e-p270:32:32-p271:32:32-p272:64:64-i64:64-i128:128-f80:128-n8:16:32:64-S128"
target triple = "x86_64-pc-linux-gnu"

@mdns_udp_handle = internal global ptr null, align 8
@llmnr_udp_handle = internal global ptr null, align 8
@dns_handle = internal global ptr null, align 8
@.str.9 = private unnamed_addr constant [4 x i8] c"dns\00", align 1
@.str.10 = private unnamed_addr constant [4 x i8] c"DNS\00", align 1
@proto_dns = internal global i32 0, align 4
@doq_handle = internal global ptr null, align 8
@.str.565 = private unnamed_addr constant [13 x i8] c"dns.tsig.mac\00", align 1
@.str.760 = private unnamed_addr constant [19 x i8] c"Domain Name System\00", align 1
@.str.761 = private unnamed_addr constant [29 x i8] c"Multicast Domain Name System\00", align 1
@.str.762 = private unnamed_addr constant [5 x i8] c"mDNS\00", align 1
@.str.763 = private unnamed_addr constant [5 x i8] c"mdns\00", align 1
@proto_mdns = internal global i32 0, align 4
@.str.764 = private unnamed_addr constant [37 x i8] c"Link-local Multicast Name Resolution\00", align 1
@.str.765 = private unnamed_addr constant [6 x i8] c"LLMNR\00", align 1
@.str.766 = private unnamed_addr constant [6 x i8] c"llmnr\00", align 1
@proto_llmnr = internal global i32 0, align 4
@.str.767 = private unnamed_addr constant [21 x i8] c"qr_enable_statistics\00", align 1
@.str.768 = private unnamed_addr constant [33 x i8] c"Enable Query-Response Statistics\00", align 1
@dns_qr_statistics_enabled = internal global i8 1, align 1
@perf_qr_enable_statistics = internal global ptr null, align 8
@.str.769 = private unnamed_addr constant [25 x i8] c"qr_qrn_enable_statistics\00", align 1
@.str.770 = private unnamed_addr constant [36 x i8] c"Enable Display of Query-Record-Name\00", align 1
@dns_qr_qrn_statistics_enabled = internal global i8 0, align 1
@perf_qr_qrn_enable_statistics = internal global ptr null, align 8
@.str.771 = private unnamed_addr constant [32 x i8] c"qr_qrn_aud_zv_enable_statistics\00", align 1
@.str.772 = private unnamed_addr constant [63 x i8] c"Enable Display of Query-Record-Name for Nodes with Zero-Values\00", align 1
@.str.773 = private unnamed_addr constant [178 x i8] c"Enable Display of Query-Record-Name for Answers-Authorities-Additionals with Zero-Values. If this is set, it also requires dns.qr_qrn_enable_statistics to be set for it to work.\00", align 1
@dns_qr_qrn_aud_zv_statistics_enabled = internal global i8 0, align 1
@perf_qr_qrn_aud_zv_enable_statistics = internal global ptr null, align 8
@.str.774 = private unnamed_addr constant [23 x i8] c"desegment_dns_messages\00", align 1
@.str.775 = private unnamed_addr constant [55 x i8] c"Reassemble DNS messages spanning multiple TCP segments\00", align 1
@.str.776 = private unnamed_addr constant [204 x i8] c"Whether the DNS dissector should reassemble messages spanning multiple TCP segments. To use this option, you must also enable \22Allow subdissectors to reassemble TCP streams\22 in the TCP protocol settings.\00", align 1
@dns_desegment = internal global i8 1, align 1
@.str.777 = private unnamed_addr constant [21 x i8] c"retransmission_timer\00", align 1
@.str.778 = private unnamed_addr constant [50 x i8] c"Number of seconds allowed between retransmissions\00", align 1
@.str.779 = private unnamed_addr constant [149 x i8] c"Number of seconds allowed between DNS requests with the same transaction ID to consider it a retransmission. Otherwise its considered a new request.\00", align 1
@retransmission_timer = internal global i32 5, align 4
@.str.780 = private unnamed_addr constant [24 x i8] c"use_for_addr_resolution\00", align 1
@.str.781 = private unnamed_addr constant [29 x i8] c"text_use_for_addr_resolution\00", align 1
@.str.782 = private unnamed_addr constant [82 x i8] c"DNS address resolution settings can be changed in the Name Resolution preferences\00", align 1
@.str.783 = private unnamed_addr constant [19 x i8] c"enable_qname_stats\00", align 1
@.str.784 = private unnamed_addr constant [36 x i8] c"Add queried names to DNS statistics\00", align 1
@.str.785 = private unnamed_addr constant [70 x i8] c"Whether the DNS dissector should add queried names to DNS statistics.\00", align 1
@dns_qname_stats = internal global i8 0, align 1
@.str.786 = private unnamed_addr constant [13 x i8] c"DNS TSIG MAC\00", align 1
@dns_tsig_dissector_table = internal global ptr null, align 8
@.str.787 = private unnamed_addr constant [8 x i8] c"dns.doq\00", align 1
@dns_tap = internal global i32 0, align 4

; Function Attrs: null_pointer_is_valid sspstrong uwtable
define hidden void @proto_register_dns() #0 {
  %1 = alloca ptr, align 8
  %2 = alloca ptr, align 8
  call void @llvm.lifetime.start.p0(i64 8, ptr %1) #11
  call void @llvm.lifetime.start.p0(i64 8, ptr %2) #11
  %3 = call i32 @proto_register_protocol(ptr noundef @.str.760, ptr noundef @.str.10, ptr noundef @.str.9)
  store i32 %3, ptr @proto_dns, align 4
  %4 = call i32 @proto_register_protocol(ptr noundef @.str.761, ptr noundef @.str.762, ptr noundef @.str.763)
  store i32 %4, ptr @proto_mdns, align 4
  %5 = call i32 @proto_register_protocol(ptr noundef @.str.764, ptr noundef @.str.765, ptr noundef @.str.766)
  store i32 %5, ptr @proto_llmnr, align 4
  %6 = load i32, ptr @proto_dns, align 4
  call void @proto_register_field_array(i32 noundef %6, ptr noundef @proto_register_dns.hf, i32 noundef 344)
  call void @proto_register_subtree_array(ptr noundef @proto_register_dns.ett, i32 noundef 19)
  %7 = load i32, ptr @proto_dns, align 4
  %8 = call ptr @expert_register_protocol(i32 noundef %7)
  store ptr %8, ptr %2, align 8
  %9 = load ptr, ptr %2, align 8
  call void @expert_register_field_array(ptr noundef %9, ptr noundef @proto_register_dns.ei, i32 noundef 11)
  %10 = load i32, ptr @proto_dns, align 4
  %11 = call ptr @prefs_register_protocol(i32 noundef %10, ptr noundef null)
  store ptr %11, ptr %1, align 8
  %12 = load ptr, ptr %1, align 8
  call void @prefs_register_bool_preference(ptr noundef %12, ptr noundef @.str.767, ptr noundef @.str.768, ptr noundef @.str.768, ptr noundef @dns_qr_statistics_enabled)
  %13 = load ptr, ptr %1, align 8
  %14 = call ptr @prefs_find_preference(ptr noundef %13, ptr noundef @.str.767)
  store ptr %14, ptr @perf_qr_enable_statistics, align 8
  %15 = load ptr, ptr @perf_qr_enable_statistics, align 8
  %16 = call zeroext i1 @prefs_get_bool_value(ptr noundef %15, i32 noundef 2)
  %17 = zext i1 %16 to i8
  store i8 %17, ptr @dns_qr_statistics_enabled, align 1
  %18 = load ptr, ptr %1, align 8
  call void @prefs_register_bool_preference(ptr noundef %18, ptr noundef @.str.769, ptr noundef @.str.770, ptr noundef @.str.770, ptr noundef @dns_qr_qrn_statistics_enabled)
  %19 = load ptr, ptr %1, align 8
  %20 = call ptr @prefs_find_preference(ptr noundef %19, ptr noundef @.str.769)
  store ptr %20, ptr @perf_qr_qrn_enable_statistics, align 8
  %21 = load ptr, ptr @perf_qr_qrn_enable_statistics, align 8
  %22 = call zeroext i1 @prefs_get_bool_value(ptr noundef %21, i32 noundef 2)
  %23 = zext i1 %22 to i8
  store i8 %23, ptr @dns_qr_qrn_statistics_enabled, align 1
  %24 = load ptr, ptr %1, align 8
  call void @prefs_register_bool_preference(ptr noundef %24, ptr noundef @.str.771, ptr noundef @.str.772, ptr noundef @.str.773, ptr noundef @dns_qr_qrn_aud_zv_statistics_enabled)
  %25 = load ptr, ptr %1, align 8
  %26 = call ptr @prefs_find_preference(ptr noundef %25, ptr noundef @.str.771)
  store ptr %26, ptr @perf_qr_qrn_aud_zv_enable_statistics, align 8
  %27 = load ptr, ptr @perf_qr_qrn_aud_zv_enable_statistics, align 8
  %28 = call zeroext i1 @prefs_get_bool_value(ptr noundef %27, i32 noundef 2)
  %29 = zext i1 %28 to i8
  store i8 %29, ptr @dns_qr_qrn_aud_zv_statistics_enabled, align 1
  %30 = load ptr, ptr %1, align 8
  call void @prefs_register_bool_preference(ptr noundef %30, ptr noundef @.str.774, ptr noundef @.str.775, ptr noundef @.str.776, ptr noundef @dns_desegment)
  %31 = load ptr, ptr %1, align 8
  call void @prefs_register_uint_preference(ptr noundef %31, ptr noundef @.str.777, ptr noundef @.str.778, ptr noundef @.str.779, i32 noundef 10, ptr noundef @retransmission_timer)
  %32 = load ptr, ptr %1, align 8
  call void @prefs_register_obsolete_preference(ptr noundef %32, ptr noundef @.str.780)
  %33 = load ptr, ptr %1, align 8
  call void @prefs_register_static_text_preference(ptr noundef %33, ptr noundef @.str.781, ptr noundef @.str.782, ptr noundef @.str.782)
  %34 = load ptr, ptr %1, align 8
  call void @prefs_register_bool_preference(ptr noundef %34, ptr noundef @.str.783, ptr noundef @.str.784, ptr noundef @.str.785, ptr noundef @dns_qname_stats)
  %35 = load i32, ptr @proto_dns, align 4
  %36 = call ptr @register_dissector_table(ptr noundef @.str.565, ptr noundef @.str.786, i32 noundef %35, i32 noundef 26, i32 noundef 0)
  store ptr %36, ptr @dns_tsig_dissector_table, align 8
  %37 = load i32, ptr @proto_dns, align 4
  %38 = call ptr @register_dissector(ptr noundef @.str.9, ptr noundef @dissect_dns, i32 noundef %37)
  store ptr %38, ptr @dns_handle, align 8
  %39 = load i32, ptr @proto_mdns, align 4
  %40 = call ptr @register_dissector(ptr noundef @.str.763, ptr noundef @dissect_mdns_udp, i32 noundef %39)
  store ptr %40, ptr @mdns_udp_handle, align 8
  %41 = load i32, ptr @proto_llmnr, align 4
  %42 = call ptr @register_dissector(ptr noundef @.str.766, ptr noundef @dissect_llmnr_udp, i32 noundef %41)
  store ptr %42, ptr @llmnr_udp_handle, align 8
  %43 = load i32, ptr @proto_dns, align 4
  %44 = call ptr @register_dissector(ptr noundef @.str.787, ptr noundef @dissect_dns_doq, i32 noundef %43)
  store ptr %44, ptr @doq_handle, align 8
  %45 = call i32 @register_tap(ptr noundef @.str.9)
  store i32 %45, ptr @dns_tap, align 4
  call void @llvm.lifetime.end.p0(i64 8, ptr %2) #11
  call void @llvm.lifetime.end.p0(i64 8, ptr %1) #11
  ret void
}