; Function Attrs: null_pointer_is_valid sspstrong uwtable
define hidden void @proto_register_dns() local_unnamed_addr #0 {
  %1 = tail call i32 @proto_register_protocol(ptr noundef nonnull @.str.760, ptr noundef nonnull @.str.10, ptr noundef nonnull @.str.9)
  store i32 %1, ptr @proto_dns, align 4
  %2 = tail call i32 @proto_register_protocol(ptr noundef nonnull @.str.761, ptr noundef nonnull @.str.762, ptr noundef nonnull @.str.763)
  store i32 %2, ptr @proto_mdns, align 4
  %3 = tail call i32 @proto_register_protocol(ptr noundef nonnull @.str.764, ptr noundef nonnull @.str.765, ptr noundef nonnull @.str.766)
  store i32 %3, ptr @proto_llmnr, align 4
  %4 = load i32, ptr @proto_dns, align 4
  tail call void @proto_register_field_array(i32 noundef %4, ptr noundef nonnull @proto_register_dns.hf, i32 noundef 344)
  tail call void @proto_register_subtree_array(ptr noundef nonnull @proto_register_dns.ett, i32 noundef 19)
  %5 = load i32, ptr @proto_dns, align 4
  %6 = tail call ptr @expert_register_protocol(i32 noundef %5)
  tail call void @expert_register_field_array(ptr noundef %6, ptr noundef nonnull @proto_register_dns.ei, i32 noundef 11)
  %7 = load i32, ptr @proto_dns, align 4
  %8 = tail call ptr @prefs_register_protocol(i32 noundef %7, ptr noundef null)
  tail call void @prefs_register_bool_preference(ptr noundef %8, ptr noundef nonnull @.str.767, ptr noundef nonnull @.str.768, ptr noundef nonnull @.str.768, ptr noundef nonnull @dns_qr_statistics_enabled)
  %9 = tail call ptr @prefs_find_preference(ptr noundef %8, ptr noundef nonnull @.str.767)
  store ptr %9, ptr @perf_qr_enable_statistics, align 8
  %10 = tail call zeroext i1 @prefs_get_bool_value(ptr noundef %9, i32 noundef 2)
  %11 = zext i1 %10 to i8
  store i8 %11, ptr @dns_qr_statistics_enabled, align 1
  tail call void @prefs_register_bool_preference(ptr noundef %8, ptr noundef nonnull @.str.769, ptr noundef nonnull @.str.770, ptr noundef nonnull @.str.770, ptr noundef nonnull @dns_qr_qrn_statistics_enabled)
  %12 = tail call ptr @prefs_find_preference(ptr noundef %8, ptr noundef nonnull @.str.769)
  store ptr %12, ptr @perf_qr_qrn_enable_statistics, align 8
  %13 = tail call zeroext i1 @prefs_get_bool_value(ptr noundef %12, i32 noundef 2)
  %14 = zext i1 %13 to i8
  store i8 %14, ptr @dns_qr_qrn_statistics_enabled, align 1
  tail call void @prefs_register_bool_preference(ptr noundef %8, ptr noundef nonnull @.str.771, ptr noundef nonnull @.str.772, ptr noundef nonnull @.str.773, ptr noundef nonnull @dns_qr_qrn_aud_zv_statistics_enabled)
  %15 = tail call ptr @prefs_find_preference(ptr noundef %8, ptr noundef nonnull @.str.771)
  store ptr %15, ptr @perf_qr_qrn_aud_zv_enable_statistics, align 8
  %16 = tail call zeroext i1 @prefs_get_bool_value(ptr noundef %15, i32 noundef 2)
  %17 = zext i1 %16 to i8
  store i8 %17, ptr @dns_qr_qrn_aud_zv_statistics_enabled, align 1
  tail call void @prefs_register_bool_preference(ptr noundef %8, ptr noundef nonnull @.str.774, ptr noundef nonnull @.str.775, ptr noundef nonnull @.str.776, ptr noundef nonnull @dns_desegment)
  tail call void @prefs_register_uint_preference(ptr noundef %8, ptr noundef nonnull @.str.777, ptr noundef nonnull @.str.778, ptr noundef nonnull @.str.779, i32 noundef 10, ptr noundef nonnull @retransmission_timer)
  tail call void @prefs_register_obsolete_preference(ptr noundef %8, ptr noundef nonnull @.str.780)
  tail call void @prefs_register_static_text_preference(ptr noundef %8, ptr noundef nonnull @.str.781, ptr noundef nonnull @.str.782, ptr noundef nonnull @.str.782)
  tail call void @prefs_register_bool_preference(ptr noundef %8, ptr noundef nonnull @.str.783, ptr noundef nonnull @.str.784, ptr noundef nonnull @.str.785, ptr noundef nonnull @dns_qname_stats)
  %18 = load i32, ptr @proto_dns, align 4
  %19 = tail call ptr @register_dissector_table(ptr noundef nonnull @.str.565, ptr noundef nonnull @.str.786, i32 noundef %18, i32 noundef 26, i32 noundef 0)
  store ptr %19, ptr @dns_tsig_dissector_table, align 8
  %20 = load i32, ptr @proto_dns, align 4
  %21 = tail call ptr @register_dissector(ptr noundef nonnull @.str.9, ptr noundef nonnull @dissect_dns, i32 noundef %20)
  store ptr %21, ptr @dns_handle, align 8
  %22 = load i32, ptr @proto_mdns, align 4
  %23 = tail call ptr @register_dissector(ptr noundef nonnull @.str.763, ptr noundef nonnull @dissect_mdns_udp, i32 noundef %22)
  store ptr %23, ptr @mdns_udp_handle, align 8
  %24 = load i32, ptr @proto_llmnr, align 4
  %25 = tail call ptr @register_dissector(ptr noundef nonnull @.str.766, ptr noundef nonnull @dissect_llmnr_udp, i32 noundef %24)
  store ptr %25, ptr @llmnr_udp_handle, align 8
  %26 = load i32, ptr @proto_dns, align 4
  %27 = tail call ptr @register_dissector(ptr noundef nonnull @.str.787, ptr noundef nonnull @dissect_dns_doq, i32 noundef %26)
  store ptr %27, ptr @doq_handle, align 8
  %28 = tail call i32 @register_tap(ptr noundef nonnull @.str.9)
  store i32 %28, ptr @dns_tap, align 4
  ret void
}